(lp0
(lp1
(lp2
(lp3
(lp4
S'selena'
p5
aI0
aaF1.3035701995143456
aNa(lp6
S'elea'
p7
aI2
aaF1.6571735447576015
aNa(lp8
S'selena'
p9
aI1
aaF0.9229225959686582
aNa(lp10
S'selena'
p11
aI1
aaF1.220292914058981
aNa(lp12
S'selena'
p13
aI0
aaF1.0847745788560443
aNa(lp14
S'zelina'
p15
aI1
aaF1.0679578004759946
aNaa(lp16
(lp17
S'selena'
p18
aI0
aaF9.712542609468448
aF1.0
a(lp19
S'basile'
p20
aI2
aaF9.025751635249666
aF0.625
a(lp21
S'selena'
p22
aI1
aaF6.644686842292746
aF1.0
a(lp23
S'selena'
p24
aI1
aaF9.961480316025508
aF0.8571428571428571
a(lp25
S'elena'
p26
aI1
aaF8.260688441015695
aF0.8333333333333334
a(lp27
S'flena'
p28
aI1
aaF7.305122433922868
aF0.8333333333333334
aa(lp29
(lp30
S'selena'
p31
aI0
aaF1.5151933017855228
aF1.0
a(lp32
NaI6
aaF0.5601839497392405
aF0.0
a(lp33
NaI5
aaF0.8965424597391092
aF0.0
a(lp34
NaI7
aaF1.5114500682838283
aF0.0
a(lp35
S'elena'
p36
aI1
aaF1.3248613494235997
aF0.8
a(lp37
S'flena'
p38
aI1
aaF1.0499123962611208
aF0.8
aa(lp39
(lp40
S'selena'
p41
aI0
aaF0.546830266095597
aF1.0
a(lp42
NaI6
aaF0.0638625822756751
aF0.0
a(lp43
NaI5
aaF0.018396181418822266
aF0.0
a(lp44
NaI7
aaF0.10391155825979581
aF0.0
a(lp45
S'elena'
p46
aI1
aaF0.2145983691576845
aF0.75
a(lp47
NaI6
aaF0.053231195383503405
aF0.0
aa(lp48
(lp49
S'selena'
p50
aI0
aaF0.06845468453597903
aF1.0
a(lp51
NaI6
aaF0.0019144828119124213
aF0.0
a(lp52
NaI5
aaF0.0012992642734843685
aF0.0
a(lp53
NaI7
aaF0.005708431090084787
aF0.0
a(lp54
S'selena'
p55
aI0
aaF0.006279576072770965
aF1.0
a(lp56
NaI6
aaF0.0007069881339418771
aF0.0
aaaa(lp57
(lp58
(lp59
(lp60
S'potere'
p61
aI0
aaF8.039175353584639
aNa(lp62
S'tempero'
p63
aI1
aaF8.049841154075125
aNa(lp64
S'otre'
p65
aI1
aaF6.860065856759732
aNa(lp66
S'potere'
p67
aI1
aaF9.178225006973278
aNa(lp68
S'potere'
p69
aI1
aaF7.946893780315662
aNa(lp70
S'potere'
p71
aI1
aaF7.971166838332152
aNaa(lp72
(lp73
S'potere'
p74
aI0
aaF59.832307365355305
aF1.0
a(lp75
S'potere'
p76
aI1
aaF50.194407246900056
aF1.0
a(lp77
S'porre'
p78
aI1
aaF34.94344940174676
aF0.8
a(lp79
S'potere'
p80
aI1
aaF44.53490021867725
aF0.8571428571428571
a(lp81
S'potere'
p82
aI0
aaF52.31315831100471
aF1.0
a(lp83
S'potere'
p84
aI1
aaF52.61420786537883
aF0.7142857142857143
aa(lp85
(lp86
S'potere'
p87
aI0
aaF10.714374982642255
aF1.0
a(lp88
S'opter'
p89
aI1
aaF7.593845882624294
aF0.8
a(lp90
S'potr'
p91
aI1
aaF5.068299521469839
aF0.75
a(lp92
NaI7
aaF6.788714996238639
aF0.0
a(lp93
S'potere'
p94
aI0
aaF7.4752324729128645
aF1.0
a(lp95
NaI6
aaF6.381137846384945
aF0.0
aa(lp96
(lp97
S'potere'
p98
aI0
aaF1.3555782027891041
aF1.0
a(lp99
NaI6
aaF0.1159140553588145
aF0.0
a(lp100
S'potr'
p101
aI1
aaF0.09383380767746985
aF0.6666666666666666
a(lp102
NaI7
aaF1.1316791058743547
aF0.0
a(lp103
S'potere'
p104
aI0
aaF1.2180560301680998
aF1.0
a(lp105
NaI6
aaF1.3276059848266186
aF0.0
aa(lp106
(lp107
S'potere'
p108
aI0
aaF0.3107046818191179
aF1.0
a(lp109
NaI6
aaF0.0015268770202965243
aF0.0
a(lp110
S'potrei'
p111
aI1
aaF0.06367481685327903
aF0.6666666666666666
a(lp112
NaI7
aaF0.02599675666931489
aF0.0
a(lp113
NaI6
aaF0.12985699640529447
aF0.0
a(lp114
NaI6
aaF0.1445069255856879
aF0.0
aaaa(lp115
(lp116
(lp117
(lp118
S'lacertoso'
p119
aI0
aaF78.55387660128883
aNa(lp120
S'altresi'
p121
aI3
aaF83.50087784863092
aNa(lp122
S'acetoso'
p123
aI1
aaF58.49042396345635
aNa(lp124
S'lacertoso'
p125
aI1
aaF69.85360515648529
aNa(lp126
S'lacertoso'
p127
aI1
aaF63.342181049337
aNa(lp128
S'lacertoso'
p129
aI1
aaF63.6015020026299
aNaa(lp130
(lp131
S'lacertoso'
p132
aI0
aaF621.1623555081682
aF1.0
a(lp133
S'salatore'
p134
aI3
aaF657.1615645991542
aF0.8888888888888888
a(lp135
S'lacertoso'
p136
aI1
aaF520.9671452773073
aF0.8888888888888888
a(lp137
S'lacertoso'
p138
aI1
aaF711.09425522332
aF1.0
a(lp139
S'lacertoso'
p140
aI1
aaF472.3964887262259
aF0.8
a(lp141
S'lacertoso'
p142
aI1
aaF444.6690082000964
aF0.8
aa(lp143
(lp144
S'lacertoso'
p145
aI0
aaF74.32135176614247
aF1.0
a(lp146
NaI9
aaF63.203153130852115
aF0.0
a(lp147
S'lacertoso'
p148
aI1
aaF46.89822208483656
aF0.6666666666666666
a(lp149
S'lacertoso'
p150
aI1
aaF53.82173152321866
aF0.7
a(lp151
NaI9
aaF41.745083987292674
aF0.0
a(lp152
NaI9
aaF39.95764893541218
aF0.0
aa(lp153
(lp154
S'lacertoso'
p155
aI0
aaF3.349610764091267
aF1.0
a(lp156
NaI9
aaF3.3404018059291047
aF0.0
a(lp157
S'acetoso'
p158
aI1
aaF1.7807980573825262
aF0.8333333333333334
a(lp159
NaI10
aaF2.7048448308969455
aF0.0
a(lp160
S'lacertoso'
p161
aI0
aaF2.8501825128205382
aF1.0
a(lp162
NaI9
aaF2.4019586771173635
aF0.0
aa(lp163
(lp164
S'lacertoso'
p165
aI0
aaF0.6194707309323348
aF1.0
a(lp166
NaI9
aaF0.2851589244119168
aF0.0
a(lp167
S'acetoso'
p168
aI1
aaF0.23556832548274542
aF0.8
a(lp169
NaI10
aaF0.22294577986667719
aF0.0
a(lp170
S'lacertoso'
p171
aI0
aaF0.2783631443644481
aF1.0
a(lp172
NaI9
aaF0.2639372054472915
aF0.0
aaaa.