(lp0
(lp1
(lp2
I0
aF0.6050416464411552
aF1.0
aI5
aF0.3476155631386131
aF0.8888888888888888
aI1
aF0.2907927434487456
aF1.0
aI1
aF0.43265991436458084
aF0.9
aI0
aF0.31770776732088635
aF1.0
aI4
aF0.43815461226185204
aF0.8181818181818182
aa(lp3
I0
aF0.24983034720260067
aF1.0
aI4
aF0.16388158355490834
aF0.4444444444444444
aI1
aF0.07217911471427119
aF0.875
aI1
aF0.12230396951321154
aF0.7
aI1
aF0.1115470161635046
aF0.7777777777777778
aI2
aF0.07393782858909237
aF0.45454545454545453
aa(lp4
I0
aF0.13365440578051135
aF1.0
aI5
aF0.06634571496881048
aF0.09090909090909091
aI1
aF0.01039651662355956
aF0.625
aI1
aF0.03329964427249754
aF0.5
aI1
aF0.014704248685643684
aF0.75
aI1
aF0.004047517273190859
aF0.4
aa(lp5
I0
aF0.018579094428385012
aF1.0
aI9
aF0.0004105476947748876
aF0.0
aI2
aF0.0060278061538685535
aF0.5
aI1
aF0.006121386878412682
aF0.3
aI1
aF0.004654282616203265
aF0.7142857142857143
aI2
aF0.0018679920112245618
aF0.2
aaa(lp6
(lp7
I3
aF2.814599076026188
aF1.0
aI4
aF2.9932452829277363
aF0.7777777777777778
aI1
aF2.060195348253119
aF1.0
aI1
aF2.4151880912188677
aF0.8888888888888888
aI2
aF2.2144785682028374
aF0.8888888888888888
aI3
aF2.12285337892828
aF1.0
aa(lp8
I0
aF0.9107831559525792
aF1.0
aI3
aF0.3450049627971339
aF0.3333333333333333
aI1
aF0.328614449829864
aF0.5714285714285714
aI1
aF0.48598160746327324
aF0.6666666666666666
aI2
aF0.4510651297692938
aF0.5555555555555556
aI3
aF0.21162707296398509
aF0.375
aa(lp9
I0
aF0.17036340715947063
aF1.0
aI3
aF0.08380848191537638
aF0.1111111111111111
aI3
aF0.06359142293415943
aF0.4
aI1
aF0.03922239851623388
aF0.4444444444444444
aI3
aF0.12166943182614176
aF0.5555555555555556
aI2
aF0.07951282478548904
aF0.3
aa(lp10
I0
aF0.06715835790582148
aF1.0
aI4
aF0.01779663882187421
aF0.2857142857142857
aI3
aF0.005518244015060958
aF0.25
aI1
aF0.00943595576710976
aF0.2222222222222222
aI1
aF0.07686781088724004
aF0.8333333333333334
aI3
aF0.028085084802249582
aF0.5
aaa(lp11
(lp12
I0
aF7.368212982484106
aF1.0
aI1
aF8.117116578640413
aF0.8
aI1
aF6.143871609660913
aF0.75
aI1
aF7.935504768390722
aF0.8333333333333334
aI0
aF7.273475479435184
aF1.0
aI4
aF5.451134560629441
aF0.6666666666666666
aa(lp13
I0
aF1.2054773099949045
aF1.0
aI2
aF0.856423018684751
aF0.5
aI1
aF0.7464203863495271
aF0.4
aI1
aF1.1843328962207949
aF0.42857142857142855
aI1
aF0.8311930516010051
aF0.6
aI1
aF0.8122969902023982
aF0.3333333333333333
aa(lp14
I0
aF0.26266056641091495
aF1.0
aI1
aF0.2621033082899231
aF0.25
aI3
aF0.03350854059955566
aF0.2
aI1
aF0.17626925649813074
aF0.75
aI1
aF0.05543722122000361
aF0.5
aI1
aF0.06437085980762447
aF0.5
aa(lp15
I0
aF0.10380577713056027
aF1.0
aI3
aF0.010581866832808373
aF0.2
aI4
aF0.000277723440575528
aF0.0
aI4
aF0.009696170556011907
aF0.14285714285714285
aI1
aF0.016547487085858847
aF0.3333333333333333
aI1
aF0.001992363812874487
aF0.3333333333333333
aaa.